; ModuleID = '42/757.c'
source_filename = "42/757.c"
target datalayout = "e-m:e-p270:32:32-p271:32:32-p272:64:64-i64:64-f80:128-n8:16:32:64-S128"
target triple = "x86_64-pc-linux-gnu"

@.str = private unnamed_addr constant [3 x i8] c"%d\00", align 1
@.str.1 = private unnamed_addr constant [4 x i8] c" %d\00", align 1

; Function Attrs: noinline nounwind uwtable
define dso_local void @main() #0 {
  %1 = alloca i32, align 4
  %2 = alloca i32, align 4
  %3 = alloca i32, align 4
  %4 = alloca i32, align 4
  %5 = alloca i32, align 4
  %6 = alloca i32*, align 8
  %7 = alloca i32*, align 8
  store i32 0, i32* %4, align 4
  %8 = call noalias i8* @malloc(i64 400000) #3
  %9 = bitcast i8* %8 to i32*
  store i32* %9, i32** %6, align 8
  %10 = call i32 (i8*, ...) @__isoc99_scanf(i8* getelementptr inbounds ([3 x i8], [3 x i8]* @.str, i64 0, i64 0), i32* %1)
  %11 = load i32*, i32** %6, align 8
  store i32* %11, i32** %7, align 8
  store i32 0, i32* %3, align 4
  br label %12

12:                                               ; preds = %22, %0
  %13 = load i32, i32* %3, align 4
  %14 = load i32, i32* %1, align 4
  %15 = icmp slt i32 %13, %14
  br i1 %15, label %16, label %25

16:                                               ; preds = %12
  %17 = load i32*, i32** %6, align 8
  %18 = load i32, i32* %3, align 4
  %19 = sext i32 %18 to i64
  %20 = getelementptr inbounds i32, i32* %17, i64 %19
  %21 = call i32 (i8*, ...) @__isoc99_scanf(i8* getelementptr inbounds ([3 x i8], [3 x i8]* @.str, i64 0, i64 0), i32* %20)
  br label %22

22:                                               ; preds = %16
  %23 = load i32, i32* %3, align 4
  %24 = add nsw i32 %23, 1
  store i32 %24, i32* %3, align 4
  br label %12

25:                                               ; preds = %12
  %26 = call i32 (i8*, ...) @__isoc99_scanf(i8* getelementptr inbounds ([3 x i8], [3 x i8]* @.str, i64 0, i64 0), i32* %2)
  store i32 0, i32* %3, align 4
  br label %27

27:                                               ; preds = %77, %25
  %28 = load i32, i32* %3, align 4
  %29 = load i32, i32* %1, align 4
  %30 = icmp slt i32 %28, %29
  br i1 %30, label %31, label %80

31:                                               ; preds = %27
  %32 = load i32*, i32** %6, align 8
  %33 = load i32, i32* %3, align 4
  %34 = sext i32 %33 to i64
  %35 = getelementptr inbounds i32, i32* %32, i64 %34
  %36 = load i32, i32* %35, align 4
  %37 = load i32, i32* %2, align 4
  %38 = icmp eq i32 %36, %37
  br i1 %38, label %39, label %76

39:                                               ; preds = %31
  %40 = load i32, i32* %3, align 4
  store i32 %40, i32* %5, align 4
  br label %41

41:                                               ; preds = %68, %39
  %42 = load i32, i32* %5, align 4
  %43 = load i32, i32* %1, align 4
  %44 = sub nsw i32 %43, 1
  %45 = icmp slt i32 %42, %44
  br i1 %45, label %46, label %71

46:                                               ; preds = %41
  %47 = load i32*, i32** %6, align 8
  %48 = load i32, i32* %5, align 4
  %49 = sext i32 %48 to i64
  %50 = getelementptr inbounds i32, i32* %47, i64 %49
  %51 = load i32, i32* %50, align 4
  store i32 %51, i32* %4, align 4
  %52 = load i32*, i32** %6, align 8
  %53 = load i32, i32* %5, align 4
  %54 = sext i32 %53 to i64
  %55 = getelementptr inbounds i32, i32* %52, i64 %54
  %56 = getelementptr inbounds i32, i32* %55, i64 1
  %57 = load i32, i32* %56, align 4
  %58 = load i32*, i32** %6, align 8
  %59 = load i32, i32* %5, align 4
  %60 = sext i32 %59 to i64
  %61 = getelementptr inbounds i32, i32* %58, i64 %60
  store i32 %57, i32* %61, align 4
  %62 = load i32, i32* %4, align 4
  %63 = load i32*, i32** %6, align 8
  %64 = load i32, i32* %5, align 4
  %65 = sext i32 %64 to i64
  %66 = getelementptr inbounds i32, i32* %63, i64 %65
  %67 = getelementptr inbounds i32, i32* %66, i64 1
  store i32 %62, i32* %67, align 4
  br label %68

68:                                               ; preds = %46
  %69 = load i32, i32* %5, align 4
  %70 = add nsw i32 %69, 1
  store i32 %70, i32* %5, align 4
  br label %41

71:                                               ; preds = %41
  %72 = load i32, i32* %3, align 4
  %73 = add nsw i32 %72, -1
  store i32 %73, i32* %3, align 4
  %74 = load i32, i32* %1, align 4
  %75 = add nsw i32 %74, -1
  store i32 %75, i32* %1, align 4
  br label %76

76:                                               ; preds = %71, %31
  br label %77

77:                                               ; preds = %76
  %78 = load i32, i32* %3, align 4
  %79 = add nsw i32 %78, 1
  store i32 %79, i32* %3, align 4
  br label %27

80:                                               ; preds = %27
  %81 = load i32*, i32** %6, align 8
  %82 = getelementptr inbounds i32, i32* %81, i64 0
  %83 = load i32, i32* %82, align 4
  %84 = load i32, i32* %2, align 4
  %85 = icmp ne i32 %83, %84
  br i1 %85, label %86, label %91

86:                                               ; preds = %80
  %87 = load i32*, i32** %6, align 8
  %88 = getelementptr inbounds i32, i32* %87, i64 0
  %89 = load i32, i32* %88, align 4
  %90 = call i32 (i8*, ...) @printf(i8* getelementptr inbounds ([3 x i8], [3 x i8]* @.str, i64 0, i64 0), i32 %89)
  br label %91

91:                                               ; preds = %86, %80
  store i32 1, i32* %3, align 4
  br label %92

92:                                               ; preds = %112, %91
  %93 = load i32, i32* %3, align 4
  %94 = load i32, i32* %1, align 4
  %95 = icmp slt i32 %93, %94
  br i1 %95, label %96, label %115

96:                                               ; preds = %92
  %97 = load i32*, i32** %6, align 8
  %98 = load i32, i32* %3, align 4
  %99 = sext i32 %98 to i64
  %100 = getelementptr inbounds i32, i32* %97, i64 %99
  %101 = load i32, i32* %100, align 4
  %102 = load i32, i32* %2, align 4
  %103 = icmp ne i32 %101, %102
  br i1 %103, label %104, label %111

104:                                              ; preds = %96
  %105 = load i32*, i32** %6, align 8
  %106 = load i32, i32* %3, align 4
  %107 = sext i32 %106 to i64
  %108 = getelementptr inbounds i32, i32* %105, i64 %107
  %109 = load i32, i32* %108, align 4
  %110 = call i32 (i8*, ...) @printf(i8* getelementptr inbounds ([4 x i8], [4 x i8]* @.str.1, i64 0, i64 0), i32 %109)
  br label %111

111:                                              ; preds = %104, %96
  br label %112

112:                                              ; preds = %111
  %113 = load i32, i32* %3, align 4
  %114 = add nsw i32 %113, 1
  store i32 %114, i32* %3, align 4
  br label %92

115:                                              ; preds = %92
  ret void
}

; Function Attrs: nounwind
declare dso_local noalias i8* @malloc(i64) #1

declare dso_local i32 @__isoc99_scanf(i8*, ...) #2

declare dso_local i32 @printf(i8*, ...) #2


!llvm.module.flags = !{!0}
!llvm.ident = !{!1}

!0 = !{i32 1, !"wchar_size", i32 4}
!1 = !{!"clang version 10.0.0-4ubuntu1 "}
